target datalayout = "e-m:e-p270:32:32-p271:32:32-p272:64:64-i64:64-i128:128-f80:128-n8:16:32:64-S128"
target triple = "x86_64-pc-linux-gnu"

%struct.expert_field = type { i32, i32 }

@ei_bacapp_opening_tag = internal global %struct.expert_field zeroinitializer, align 4

; Function Attrs: nounwind null_pointer_is_valid sspstrong uwtable
define internal zeroext i1 @tag_is_opening(i8 noundef zeroext %0) #3 {
  %2 = alloca i8, align 1
  store i8 %0, ptr %2, align 1
  %3 = load i8, ptr %2, align 1
  %4 = zext i8 %3 to i32
  %5 = and i32 %4, 7
  %6 = icmp eq i32 %5, 6
  ret i1 %6
}

; Function Attrs: null_pointer_is_valid sspstrong uwtable
define internal i32 @fPropertyValue(ptr noundef %0, ptr noundef %1, ptr noundef %2, i32 noundef %3, i8 noundef zeroext %4) #0 {
  %6 = alloca ptr, align 8
  %7 = alloca ptr, align 8
  %8 = alloca ptr, align 8
  %9 = alloca i32, align 4
  %10 = alloca i8, align 1
  %11 = alloca i8, align 1
  %12 = alloca i32, align 4
  store ptr %0, ptr %6, align 8
  store ptr %1, ptr %7, align 8
  store ptr %2, ptr %8, align 8
  store i32 %3, ptr %9, align 4
  store i8 %4, ptr %10, align 1
  call void @llvm.lifetime.start.p0(i64 1, ptr %11) #7
  call void @llvm.lifetime.start.p0(i64 4, ptr %12) #7
  %13 = load i8, ptr %10, align 1
  %14 = call zeroext i1 @tag_is_opening(i8 noundef zeroext %13)
  br i1 %14, label %15, label %41

15:                                               ; preds = %5
  %16 = load ptr, ptr %6, align 8
  %17 = load ptr, ptr %7, align 8
  %18 = load ptr, ptr %8, align 8
  %19 = load i32, ptr %9, align 4
  %20 = call i32 @fTagHeaderTree(ptr noundef %16, ptr noundef %17, ptr noundef %18, i32 noundef %19, ptr noundef %11, ptr noundef %10, ptr noundef %12)
  %21 = load i32, ptr %9, align 4
  %22 = add i32 %21, %20
  store i32 %22, ptr %9, align 4
  %23 = load ptr, ptr %6, align 8
  %24 = load ptr, ptr %7, align 8
  %25 = load ptr, ptr %8, align 8
  %26 = load i32, ptr %9, align 4
  %27 = call i32 @fAbstractSyntaxNType(ptr noundef %23, ptr noundef %24, ptr noundef %25, i32 noundef %26)
  store i32 %27, ptr %9, align 4
  %28 = load ptr, ptr %6, align 8
  %29 = load i32, ptr %9, align 4
  %30 = call i32 @tvb_reported_length_remaining(ptr noundef %28, i32 noundef %29)
  %31 = icmp sgt i32 %30, 0
  br i1 %31, label %32, label %40

32:                                               ; preds = %15
  %33 = load ptr, ptr %6, align 8
  %34 = load ptr, ptr %7, align 8
  %35 = load ptr, ptr %8, align 8
  %36 = load i32, ptr %9, align 4
  %37 = call i32 @fTagHeaderTree(ptr noundef %33, ptr noundef %34, ptr noundef %35, i32 noundef %36, ptr noundef %11, ptr noundef %10, ptr noundef %12)
  %38 = load i32, ptr %9, align 4
  %39 = add i32 %38, %37
  store i32 %39, ptr %9, align 4
  br label %40

40:                                               ; preds = %32, %15
  br label %49

41:                                               ; preds = %5
  %42 = load ptr, ptr %8, align 8
  %43 = load ptr, ptr %7, align 8
  %44 = load ptr, ptr %6, align 8
  %45 = load i32, ptr %9, align 4
  %46 = call ptr @proto_tree_add_expert(ptr noundef %42, ptr noundef %43, ptr noundef @ei_bacapp_opening_tag, ptr noundef %44, i32 noundef %45, i32 noundef -1)
  %47 = load ptr, ptr %6, align 8
  %48 = call i32 @tvb_reported_length(ptr noundef %47)
  store i32 %48, ptr %9, align 4
  br label %49

49:                                               ; preds = %41, %40
  %50 = load i32, ptr %9, align 4
  call void @llvm.lifetime.end.p0(i64 4, ptr %12) #7
  call void @llvm.lifetime.end.p0(i64 1, ptr %11) #7
  ret i32 %50
}