; Function Attrs: null_pointer_is_valid sspstrong uwtable
define internal fastcc i32 @fPropertyValue(ptr noundef nonnull %0, ptr noundef %1, ptr noundef %2, i32 noundef %3, i8 noundef zeroext %4) unnamed_addr #0 {
  %6 = alloca i8, align 1
  %7 = alloca i8, align 1
  %8 = alloca i32, align 4
  call void @llvm.lifetime.start.p0(i64 1, ptr nonnull %7) #6
  call void @llvm.lifetime.start.p0(i64 4, ptr nonnull %8) #6
  %9 = and i8 %4, 7
  %10 = icmp eq i8 %9, 6
  br i1 %10, label %11, label %20

11:                                               ; preds = %5
  %12 = call fastcc i32 @fTagHeaderTree(ptr noundef %0, ptr noundef %1, ptr noundef %2, i32 noundef %3, ptr noundef nonnull %7, ptr noundef nonnull %6, ptr noundef nonnull %8)
  %13 = add i32 %12, %3
  %14 = tail call fastcc i32 @fAbstractSyntaxNType(ptr noundef %0, ptr noundef %1, ptr noundef %2, i32 noundef %13)
  %15 = tail call i32 @tvb_reported_length_remaining(ptr noundef nonnull %0, i32 noundef %14)
  %16 = icmp sgt i32 %15, 0
  br i1 %16, label %17, label %23

17:                                               ; preds = %11
  %18 = call fastcc i32 @fTagHeaderTree(ptr noundef %0, ptr noundef %1, ptr noundef %2, i32 noundef %14, ptr noundef nonnull %7, ptr noundef nonnull %6, ptr noundef nonnull %8)
  %19 = add i32 %18, %14
  br label %23

20:                                               ; preds = %5
  %21 = tail call ptr @proto_tree_add_expert(ptr noundef %2, ptr noundef %1, ptr noundef nonnull @ei_bacapp_opening_tag, ptr noundef nonnull %0, i32 noundef %3, i32 noundef -1)
  %22 = tail call i32 @tvb_reported_length(ptr noundef nonnull %0)
  br label %23

23:                                               ; preds = %11, %17, %20
  %.0 = phi i32 [ %19, %17 ], [ %14, %11 ], [ %22, %20 ]
  call void @llvm.lifetime.end.p0(i64 4, ptr nonnull %8) #6
  call void @llvm.lifetime.end.p0(i64 1, ptr nonnull %7) #6
  ret i32 %.0
}